target datalayout = "e-m:e-p270:32:32-p271:32:32-p272:64:64-i64:64-i128:128-f80:128-n8:16:32:64-S128"
target triple = "x86_64-pc-linux-gnu"

@.str.5 = private unnamed_addr constant [2 x i8] c"\0A\00", align 1
@.str.7 = private unnamed_addr constant [26 x i8] c"      Verification failed\00", align 1

; Function Attrs: inlinehint nounwind uwtable
define internal i32 @Abc_TtEqual(ptr noundef %0, ptr noundef %1, i32 noundef %2) #2 {
  %4 = alloca i32, align 4
  %5 = alloca ptr, align 8
  %6 = alloca ptr, align 8
  %7 = alloca i32, align 4
  %8 = alloca i32, align 4
  %9 = alloca i32, align 4
  store ptr %0, ptr %5, align 8, !tbaa !3
  store ptr %1, ptr %6, align 8, !tbaa !3
  store i32 %2, ptr %7, align 4, !tbaa !8
  call void @llvm.lifetime.start.p0(i64 4, ptr %8) #11
  store i32 0, ptr %8, align 4, !tbaa !8
  br label %10

10:                                               ; preds = %28, %3
  %11 = load i32, ptr %8, align 4, !tbaa !8
  %12 = load i32, ptr %7, align 4, !tbaa !8
  %13 = icmp slt i32 %11, %12
  br i1 %13, label %14, label %31

14:                                               ; preds = %10
  %15 = load ptr, ptr %5, align 8, !tbaa !3
  %16 = load i32, ptr %8, align 4, !tbaa !8
  %17 = sext i32 %16 to i64
  %18 = getelementptr inbounds i64, ptr %15, i64 %17
  %19 = load i64, ptr %18, align 8, !tbaa !12
  %20 = load ptr, ptr %6, align 8, !tbaa !3
  %21 = load i32, ptr %8, align 4, !tbaa !8
  %22 = sext i32 %21 to i64
  %23 = getelementptr inbounds i64, ptr %20, i64 %22
  %24 = load i64, ptr %23, align 8, !tbaa !12
  %25 = icmp ne i64 %19, %24
  br i1 %25, label %26, label %27

26:                                               ; preds = %14
  store i32 0, ptr %4, align 4
  store i32 1, ptr %9, align 4
  br label %32

27:                                               ; preds = %14
  br label %28

28:                                               ; preds = %27
  %29 = load i32, ptr %8, align 4, !tbaa !8
  %30 = add nsw i32 %29, 1
  store i32 %30, ptr %8, align 4, !tbaa !8
  br label %10, !llvm.loop !72

31:                                               ; preds = %10
  store i32 1, ptr %4, align 4
  store i32 1, ptr %9, align 4
  br label %32

32:                                               ; preds = %31, %26
  call void @llvm.lifetime.end.p0(i64 4, ptr %8) #11
  %33 = load i32, ptr %4, align 4
  ret i32 %33
}

; Function Attrs: inlinehint nounwind uwtable
define internal i64 @Abc_Tt6Stretch(i64 noundef %0, i32 noundef %1) #2 {
  %3 = alloca i64, align 8
  %4 = alloca i32, align 4
  store i64 %0, ptr %3, align 8, !tbaa !12
  store i32 %1, ptr %4, align 4, !tbaa !8
  %5 = load i32, ptr %4, align 4, !tbaa !8
  %6 = icmp eq i32 %5, 0
  br i1 %6, label %7, label %16

7:                                                ; preds = %2
  %8 = load i32, ptr %4, align 4, !tbaa !8
  %9 = add nsw i32 %8, 1
  store i32 %9, ptr %4, align 4, !tbaa !8
  %10 = load i64, ptr %3, align 8, !tbaa !12
  %11 = and i64 %10, 1
  %12 = load i64, ptr %3, align 8, !tbaa !12
  %13 = and i64 %12, 1
  %14 = shl i64 %13, 1
  %15 = or i64 %11, %14
  store i64 %15, ptr %3, align 8, !tbaa !12
  br label %16

16:                                               ; preds = %7, %2
  %17 = load i32, ptr %4, align 4, !tbaa !8
  %18 = icmp eq i32 %17, 1
  br i1 %18, label %19, label %28

19:                                               ; preds = %16
  %20 = load i32, ptr %4, align 4, !tbaa !8
  %21 = add nsw i32 %20, 1
  store i32 %21, ptr %4, align 4, !tbaa !8
  %22 = load i64, ptr %3, align 8, !tbaa !12
  %23 = and i64 %22, 3
  %24 = load i64, ptr %3, align 8, !tbaa !12
  %25 = and i64 %24, 3
  %26 = shl i64 %25, 2
  %27 = or i64 %23, %26
  store i64 %27, ptr %3, align 8, !tbaa !12
  br label %28

28:                                               ; preds = %19, %16
  %29 = load i32, ptr %4, align 4, !tbaa !8
  %30 = icmp eq i32 %29, 2
  br i1 %30, label %31, label %40

31:                                               ; preds = %28
  %32 = load i32, ptr %4, align 4, !tbaa !8
  %33 = add nsw i32 %32, 1
  store i32 %33, ptr %4, align 4, !tbaa !8
  %34 = load i64, ptr %3, align 8, !tbaa !12
  %35 = and i64 %34, 15
  %36 = load i64, ptr %3, align 8, !tbaa !12
  %37 = and i64 %36, 15
  %38 = shl i64 %37, 4
  %39 = or i64 %35, %38
  store i64 %39, ptr %3, align 8, !tbaa !12
  br label %40

40:                                               ; preds = %31, %28
  %41 = load i32, ptr %4, align 4, !tbaa !8
  %42 = icmp eq i32 %41, 3
  br i1 %42, label %43, label %52

43:                                               ; preds = %40
  %44 = load i32, ptr %4, align 4, !tbaa !8
  %45 = add nsw i32 %44, 1
  store i32 %45, ptr %4, align 4, !tbaa !8
  %46 = load i64, ptr %3, align 8, !tbaa !12
  %47 = and i64 %46, 255
  %48 = load i64, ptr %3, align 8, !tbaa !12
  %49 = and i64 %48, 255
  %50 = shl i64 %49, 8
  %51 = or i64 %47, %50
  store i64 %51, ptr %3, align 8, !tbaa !12
  br label %52

52:                                               ; preds = %43, %40
  %53 = load i32, ptr %4, align 4, !tbaa !8
  %54 = icmp eq i32 %53, 4
  br i1 %54, label %55, label %64

55:                                               ; preds = %52
  %56 = load i32, ptr %4, align 4, !tbaa !8
  %57 = add nsw i32 %56, 1
  store i32 %57, ptr %4, align 4, !tbaa !8
  %58 = load i64, ptr %3, align 8, !tbaa !12
  %59 = and i64 %58, 65535
  %60 = load i64, ptr %3, align 8, !tbaa !12
  %61 = and i64 %60, 65535
  %62 = shl i64 %61, 16
  %63 = or i64 %59, %62
  store i64 %63, ptr %3, align 8, !tbaa !12
  br label %64

64:                                               ; preds = %55, %52
  %65 = load i32, ptr %4, align 4, !tbaa !8
  %66 = icmp eq i32 %65, 5
  br i1 %66, label %67, label %76

67:                                               ; preds = %64
  %68 = load i32, ptr %4, align 4, !tbaa !8
  %69 = add nsw i32 %68, 1
  store i32 %69, ptr %4, align 4, !tbaa !8
  %70 = load i64, ptr %3, align 8, !tbaa !12
  %71 = and i64 %70, 4294967295
  %72 = load i64, ptr %3, align 8, !tbaa !12
  %73 = and i64 %72, 4294967295
  %74 = shl i64 %73, 32
  %75 = or i64 %71, %74
  store i64 %75, ptr %3, align 8, !tbaa !12
  br label %76

76:                                               ; preds = %67, %64
  %77 = load i64, ptr %3, align 8, !tbaa !12
  ret i64 %77
}

; Function Attrs: inlinehint nounwind uwtable
define internal void @Abc_TtMux(ptr noundef %0, ptr noundef %1, ptr noundef %2, ptr noundef %3, i32 noundef %4) #2 {
  %6 = alloca ptr, align 8
  %7 = alloca ptr, align 8
  %8 = alloca ptr, align 8
  %9 = alloca ptr, align 8
  %10 = alloca i32, align 4
  %11 = alloca i32, align 4
  store ptr %0, ptr %6, align 8, !tbaa !3
  store ptr %1, ptr %7, align 8, !tbaa !3
  store ptr %2, ptr %8, align 8, !tbaa !3
  store ptr %3, ptr %9, align 8, !tbaa !3
  store i32 %4, ptr %10, align 4, !tbaa !8
  call void @llvm.lifetime.start.p0(i64 4, ptr %11) #11
  store i32 0, ptr %11, align 4, !tbaa !8
  br label %12

12:                                               ; preds = %45, %5
  %13 = load i32, ptr %11, align 4, !tbaa !8
  %14 = load i32, ptr %10, align 4, !tbaa !8
  %15 = icmp slt i32 %13, %14
  br i1 %15, label %16, label %48

16:                                               ; preds = %12
  %17 = load ptr, ptr %7, align 8, !tbaa !3
  %18 = load i32, ptr %11, align 4, !tbaa !8
  %19 = sext i32 %18 to i64
  %20 = getelementptr inbounds i64, ptr %17, i64 %19
  %21 = load i64, ptr %20, align 8, !tbaa !12
  %22 = load ptr, ptr %8, align 8, !tbaa !3
  %23 = load i32, ptr %11, align 4, !tbaa !8
  %24 = sext i32 %23 to i64
  %25 = getelementptr inbounds i64, ptr %22, i64 %24
  %26 = load i64, ptr %25, align 8, !tbaa !12
  %27 = and i64 %21, %26
  %28 = load ptr, ptr %7, align 8, !tbaa !3
  %29 = load i32, ptr %11, align 4, !tbaa !8
  %30 = sext i32 %29 to i64
  %31 = getelementptr inbounds i64, ptr %28, i64 %30
  %32 = load i64, ptr %31, align 8, !tbaa !12
  %33 = xor i64 %32, -1
  %34 = load ptr, ptr %9, align 8, !tbaa !3
  %35 = load i32, ptr %11, align 4, !tbaa !8
  %36 = sext i32 %35 to i64
  %37 = getelementptr inbounds i64, ptr %34, i64 %36
  %38 = load i64, ptr %37, align 8, !tbaa !12
  %39 = and i64 %33, %38
  %40 = or i64 %27, %39
  %41 = load ptr, ptr %6, align 8, !tbaa !3
  %42 = load i32, ptr %11, align 4, !tbaa !8
  %43 = sext i32 %42 to i64
  %44 = getelementptr inbounds i64, ptr %41, i64 %43
  store i64 %40, ptr %44, align 8, !tbaa !12
  br label %45

45:                                               ; preds = %16
  %46 = load i32, ptr %11, align 4, !tbaa !8
  %47 = add nsw i32 %46, 1
  store i32 %47, ptr %11, align 4, !tbaa !8
  br label %12, !llvm.loop !71

48:                                               ; preds = %12
  call void @llvm.lifetime.end.p0(i64 4, ptr %11) #11
  ret void
}

; Function Attrs: inlinehint nounwind uwtable
define internal i32 @Abc_TtWordNum(i32 noundef %0) #2 {
  %2 = alloca i32, align 4
  store i32 %0, ptr %2, align 4, !tbaa !8
  %3 = load i32, ptr %2, align 4, !tbaa !8
  %4 = icmp sle i32 %3, 6
  br i1 %4, label %5, label %6

5:                                                ; preds = %1
  br label %10

6:                                                ; preds = %1
  %7 = load i32, ptr %2, align 4, !tbaa !8
  %8 = sub nsw i32 %7, 6
  %9 = shl i32 1, %8
  br label %10

10:                                               ; preds = %6, %5
  %11 = phi i32 [ 1, %5 ], [ %9, %6 ]
  ret i32 %11
}

; Function Attrs: nounwind uwtable
define i32 @Dau_DecVerify(ptr noundef %0, i32 noundef %1, ptr noundef %2, ptr noundef %3) #0 {
  %5 = alloca ptr, align 8
  %6 = alloca i32, align 4
  %7 = alloca ptr, align 8
  %8 = alloca ptr, align 8
  %9 = alloca [8192 x i64], align 16
  %10 = alloca [8192 x i64], align 16
  %11 = alloca [8192 x i64], align 16
  %12 = alloca i32, align 4
  %13 = alloca i32, align 4
  %14 = alloca i64, align 8
  %15 = alloca i64, align 8
  store ptr %0, ptr %5, align 8, !tbaa !3
  store i32 %1, ptr %6, align 4, !tbaa !8
  store ptr %2, ptr %7, align 8, !tbaa !32
  store ptr %3, ptr %8, align 8, !tbaa !32
  call void @llvm.lifetime.start.p0(i64 65536, ptr %9) #11
  call void @llvm.lifetime.start.p0(i64 65536, ptr %10) #11
  call void @llvm.lifetime.start.p0(i64 65536, ptr %11) #11
  call void @llvm.lifetime.start.p0(i64 4, ptr %12) #11
  %16 = load i32, ptr %6, align 4, !tbaa !8
  %17 = add nsw i32 %16, 1
  %18 = call i32 @Abc_TtWordNum(i32 noundef %17)
  store i32 %18, ptr %12, align 4, !tbaa !8
  call void @llvm.lifetime.start.p0(i64 4, ptr %13) #11
  %19 = load i32, ptr %6, align 4, !tbaa !8
  %20 = call i32 @Abc_TtWordNum(i32 noundef %19)
  store i32 %20, ptr %13, align 4, !tbaa !8
  %21 = getelementptr inbounds [8192 x i64], ptr %9, i64 0, i64 0
  %22 = load ptr, ptr %7, align 8, !tbaa !32
  %23 = load i32, ptr %6, align 4, !tbaa !8
  %24 = add nsw i32 %23, 1
  %25 = call ptr @Dau_DsdToTruth(ptr noundef %22, i32 noundef %24)
  %26 = load i32, ptr %12, align 4, !tbaa !8
  %27 = sext i32 %26 to i64
  %28 = mul i64 8, %27
  call void @llvm.memcpy.p0.p0.i64(ptr align 16 %21, ptr align 8 %25, i64 %28, i1 false)
  %29 = getelementptr inbounds [8192 x i64], ptr %10, i64 0, i64 0
  %30 = load ptr, ptr %8, align 8, !tbaa !32
  %31 = load i32, ptr %6, align 4, !tbaa !8
  %32 = call ptr @Dau_DsdToTruth(ptr noundef %30, i32 noundef %31)
  %33 = load i32, ptr %13, align 4, !tbaa !8
  %34 = sext i32 %33 to i64
  %35 = mul i64 8, %34
  call void @llvm.memcpy.p0.p0.i64(ptr align 16 %29, ptr align 8 %32, i64 %35, i1 false)
  %36 = load i32, ptr %6, align 4, !tbaa !8
  %37 = icmp sge i32 %36, 6
  br i1 %37, label %38, label %47

38:                                               ; preds = %4
  %39 = getelementptr inbounds [8192 x i64], ptr %11, i64 0, i64 0
  %40 = getelementptr inbounds [8192 x i64], ptr %10, i64 0, i64 0
  %41 = getelementptr inbounds [8192 x i64], ptr %9, i64 0, i64 0
  %42 = load i32, ptr %13, align 4, !tbaa !8
  %43 = sext i32 %42 to i64
  %44 = getelementptr inbounds i64, ptr %41, i64 %43
  %45 = getelementptr inbounds [8192 x i64], ptr %9, i64 0, i64 0
  %46 = load i32, ptr %13, align 4, !tbaa !8
  call void @Abc_TtMux(ptr noundef %39, ptr noundef %40, ptr noundef %44, ptr noundef %45, i32 noundef %46)
  br label %63

47:                                               ; preds = %4
  call void @llvm.lifetime.start.p0(i64 8, ptr %14) #11
  %48 = getelementptr inbounds [8192 x i64], ptr %9, i64 0, i64 0
  %49 = load i64, ptr %48, align 16, !tbaa !12
  %50 = load i32, ptr %6, align 4, !tbaa !8
  %51 = call i64 @Abc_Tt6Stretch(i64 noundef %49, i32 noundef %50)
  store i64 %51, ptr %14, align 8, !tbaa !12
  call void @llvm.lifetime.start.p0(i64 8, ptr %15) #11
  %52 = getelementptr inbounds [8192 x i64], ptr %9, i64 0, i64 0
  %53 = load i64, ptr %52, align 16, !tbaa !12
  %54 = load i32, ptr %6, align 4, !tbaa !8
  %55 = shl i32 1, %54
  %56 = zext i32 %55 to i64
  %57 = lshr i64 %53, %56
  %58 = load i32, ptr %6, align 4, !tbaa !8
  %59 = call i64 @Abc_Tt6Stretch(i64 noundef %57, i32 noundef %58)
  store i64 %59, ptr %15, align 8, !tbaa !12
  %60 = getelementptr inbounds [8192 x i64], ptr %11, i64 0, i64 0
  %61 = getelementptr inbounds [8192 x i64], ptr %10, i64 0, i64 0
  %62 = load i32, ptr %13, align 4, !tbaa !8
  call void @Abc_TtMux(ptr noundef %60, ptr noundef %61, ptr noundef %15, ptr noundef %14, i32 noundef %62)
  call void @llvm.lifetime.end.p0(i64 8, ptr %15) #11
  call void @llvm.lifetime.end.p0(i64 8, ptr %14) #11
  br label %63

63:                                               ; preds = %47, %38
  %64 = load ptr, ptr %5, align 8, !tbaa !3
  %65 = getelementptr inbounds [8192 x i64], ptr %11, i64 0, i64 0
  %66 = load i32, ptr %13, align 4, !tbaa !8
  %67 = call i32 @Abc_TtEqual(ptr noundef %64, ptr noundef %65, i32 noundef %66)
  %68 = icmp ne i32 %67, 0
  br i1 %68, label %71, label %69

69:                                               ; preds = %63
  %70 = call i32 (ptr, ...) @printf(ptr noundef @.str.7)
  br label %71

71:                                               ; preds = %69, %63
  %72 = call i32 (ptr, ...) @printf(ptr noundef @.str.5)
  call void @llvm.lifetime.end.p0(i64 4, ptr %13) #11
  call void @llvm.lifetime.end.p0(i64 4, ptr %12) #11
  call void @llvm.lifetime.end.p0(i64 65536, ptr %11) #11
  call void @llvm.lifetime.end.p0(i64 65536, ptr %10) #11
  call void @llvm.lifetime.end.p0(i64 65536, ptr %9) #11
  ret i32 1
}