; Function Attrs: nounwind uwtable
define noundef i32 @Dau_DecVerify(ptr noundef readonly captures(none) %0, i32 noundef %1, ptr noundef %2, ptr noundef %3) local_unnamed_addr #10 {
  %5 = alloca [8192 x i64], align 16
  %6 = alloca [8192 x i64], align 16
  %7 = alloca [8192 x i64], align 16
  call void @llvm.lifetime.start.p0(i64 65536, ptr nonnull %5) #20
  call void @llvm.lifetime.start.p0(i64 65536, ptr nonnull %6) #20
  call void @llvm.lifetime.start.p0(i64 65536, ptr nonnull %7) #20
  %8 = add nsw i32 %1, 1
  %9 = icmp slt i32 %1, 6
  %10 = add nsw i32 %1, -5
  %11 = shl nuw i32 1, %10
  %12 = select i1 %9, i32 1, i32 %11
  %13 = icmp slt i32 %1, 7
  %14 = add nsw i32 %1, -6
  %15 = shl nuw i32 1, %14
  %16 = select i1 %13, i32 1, i32 %15
  %17 = tail call ptr @Dau_DsdToTruth(ptr noundef %2, i32 noundef %8) #20
  %18 = sext i32 %12 to i64
  %19 = shl nsw i64 %18, 3
  call void @llvm.memcpy.p0.p0.i64(ptr noundef nonnull align 16 dereferenceable(1) %5, ptr noundef nonnull align 8 dereferenceable(1) %17, i64 %19, i1 false)
  %20 = tail call ptr @Dau_DsdToTruth(ptr noundef %3, i32 noundef %1) #20
  %21 = sext i32 %16 to i64
  %22 = shl nsw i64 %21, 3
  call void @llvm.memcpy.p0.p0.i64(ptr noundef nonnull align 16 dereferenceable(1) %6, ptr noundef nonnull align 8 dereferenceable(1) %20, i64 %22, i1 false)
  %23 = icmp sgt i32 %1, 5
  br i1 %23, label %24, label %.lr.ph.preheader.i24

24:                                               ; preds = %4
  %25 = getelementptr inbounds i64, ptr %5, i64 %21
  %26 = icmp sgt i32 %16, 0
  br i1 %26, label %.lr.ph.preheader.i, label %Abc_TtEqual.exit.thread

.lr.ph.preheader.i:                               ; preds = %24
  %wide.trip.count.i = zext nneg i32 %16 to i64
  br label %.lr.ph.i

.lr.ph.i:                                         ; preds = %.lr.ph.i, %.lr.ph.preheader.i
  %indvars.iv.i = phi i64 [ 0, %.lr.ph.preheader.i ], [ %indvars.iv.next.i, %.lr.ph.i ]
  %27 = getelementptr inbounds nuw i64, ptr %6, i64 %indvars.iv.i
  %28 = load i64, ptr %27, align 8, !tbaa !9
  %29 = getelementptr inbounds nuw i64, ptr %25, i64 %indvars.iv.i
  %30 = load i64, ptr %29, align 8, !tbaa !9
  %31 = and i64 %30, %28
  %32 = xor i64 %28, -1
  %33 = getelementptr inbounds nuw i64, ptr %5, i64 %indvars.iv.i
  %34 = load i64, ptr %33, align 8, !tbaa !9
  %35 = and i64 %34, %32
  %36 = or i64 %35, %31
  %37 = getelementptr inbounds nuw i64, ptr %7, i64 %indvars.iv.i
  store i64 %36, ptr %37, align 8, !tbaa !9
  %indvars.iv.next.i = add nuw nsw i64 %indvars.iv.i, 1
  %exitcond.not.i = icmp eq i64 %indvars.iv.next.i, %wide.trip.count.i
  br i1 %exitcond.not.i, label %Abc_TtMux.exit, label %.lr.ph.i, !llvm.loop !66

.lr.ph.preheader.i24:                             ; preds = %4
  %38 = load i64, ptr %5, align 16, !tbaa !9
  %39 = icmp eq i32 %1, 0
  %40 = trunc i64 %38 to i1
  %41 = select i1 %40, i64 3, i64 0
  %42 = icmp ult i32 %1, 2
  %43 = and i64 %38, 3
  %44 = select i1 %39, i64 %41, i64 %43
  %45 = mul nuw nsw i64 %44, 5
  %.126.i = select i1 %42, i64 %45, i64 %38
  %.1.i = tail call i32 @llvm.umax.i32(i32 %1, i32 2)
  %46 = icmp ult i32 %1, 3
  %47 = and i64 %.126.i, 15
  %48 = mul nuw nsw i64 %47, 17
  %.227.i = select i1 %46, i64 %48, i64 %38
  %.2.i = select i1 %46, i32 3, i32 %.1.i
  %49 = icmp eq i32 %.2.i, 3
  %50 = and i64 %.227.i, 255
  %51 = mul nuw nsw i64 %50, 257
  %.328.i = select i1 %49, i64 %51, i64 %.227.i
  %.3.i = select i1 %49, i32 4, i32 %.2.i
  %52 = icmp eq i32 %.3.i, 4
  %53 = and i64 %.328.i, 65535
  %54 = mul nuw nsw i64 %53, 65537
  %.429.i = select i1 %52, i64 %54, i64 %.328.i
  %55 = and i32 %.3.i, -2
  %56 = icmp eq i32 %55, 4
  %57 = and i64 %.429.i, 4294967295
  %58 = mul nuw i64 %57, 4294967297
  %.5.i = select i1 %56, i64 %58, i64 %.429.i
  %59 = shl nuw nsw i32 1, %1
  %60 = zext nneg i32 %59 to i64
  %61 = lshr i64 %38, %60
  %62 = trunc i64 %61 to i1
  %63 = select i1 %62, i64 3, i64 0
  %64 = and i64 %61, 3
  %65 = select i1 %39, i64 %63, i64 %64
  %66 = mul nuw nsw i64 %65, 5
  %.126.i16 = select i1 %42, i64 %66, i64 %61
  %67 = and i64 %.126.i16, 15
  %68 = mul nuw nsw i64 %67, 17
  %.227.i18 = select i1 %46, i64 %68, i64 %61
  %69 = and i64 %.227.i18, 255
  %70 = mul nuw nsw i64 %69, 257
  %.328.i20 = select i1 %49, i64 %70, i64 %.227.i18
  %71 = and i64 %.328.i20, 65535
  %72 = mul nuw nsw i64 %71, 65537
  %.429.i22 = select i1 %52, i64 %72, i64 %.328.i20
  %73 = and i64 %.429.i22, 4294967295
  %74 = mul nuw i64 %73, 4294967297
  %.5.i23 = select i1 %56, i64 %74, i64 %.429.i22
  %75 = load i64, ptr %6, align 16, !tbaa !9
  %76 = and i64 %.5.i23, %75
  %77 = xor i64 %75, -1
  %78 = and i64 %.5.i, %77
  %79 = or i64 %78, %76
  store i64 %79, ptr %7, align 16, !tbaa !9
  br label %Abc_TtMux.exit

Abc_TtMux.exit:                                   ; preds = %.lr.ph.i, %.lr.ph.preheader.i24
  %80 = icmp sgt i32 %16, 0
  br i1 %80, label %.lr.ph.preheader.i31, label %Abc_TtEqual.exit.thread

.lr.ph.preheader.i31:                             ; preds = %Abc_TtMux.exit
  %wide.trip.count.i32 = zext nneg i32 %16 to i64
  br label %.lr.ph.i33

81:                                               ; preds = %.lr.ph.i33
  %indvars.iv.next.i35 = add nuw nsw i64 %indvars.iv.i34, 1
  %exitcond.not.i36 = icmp eq i64 %indvars.iv.next.i35, %wide.trip.count.i32
  br i1 %exitcond.not.i36, label %Abc_TtEqual.exit.thread, label %.lr.ph.i33, !llvm.loop !67

.lr.ph.i33:                                       ; preds = %81, %.lr.ph.preheader.i31
  %indvars.iv.i34 = phi i64 [ 0, %.lr.ph.preheader.i31 ], [ %indvars.iv.next.i35, %81 ]
  %82 = getelementptr inbounds nuw i64, ptr %0, i64 %indvars.iv.i34
  %83 = load i64, ptr %82, align 8, !tbaa !9
  %84 = getelementptr inbounds nuw i64, ptr %7, i64 %indvars.iv.i34
  %85 = load i64, ptr %84, align 8, !tbaa !9
  %.not.i = icmp eq i64 %83, %85
  br i1 %.not.i, label %81, label %Abc_TtEqual.exit

Abc_TtEqual.exit:                                 ; preds = %.lr.ph.i33
  %86 = tail call i32 (ptr, ...) @printf(ptr noundef nonnull dereferenceable(1) @.str.7)
  br label %Abc_TtEqual.exit.thread

Abc_TtEqual.exit.thread:                          ; preds = %81, %24, %Abc_TtMux.exit, %Abc_TtEqual.exit
  %putchar = tail call i32 @putchar(i32 10)
  call void @llvm.lifetime.end.p0(i64 65536, ptr nonnull %7) #20
  call void @llvm.lifetime.end.p0(i64 65536, ptr nonnull %6) #20
  call void @llvm.lifetime.end.p0(i64 65536, ptr nonnull %5) #20
  ret i32 1
}